target datalayout = "e-m:e-p270:32:32-p271:32:32-p272:64:64-i64:64-i128:128-f80:128-n8:16:32:64-S128"
target triple = "x86_64-pc-linux-gnu"

%class.ast = type { i32, i32, i32, i32 }
%class.app = type { %class.expr, ptr, i32, %struct.app_flags, [0 x ptr] }
%class.expr = type { %class.ast }
%struct.app_flags = type <{ i16, i8, i8 }>
%class.ptr_buffer.60 = type { %class.buffer.61 }
%class.buffer.61 = type { ptr, i32, i32, [1024 x i8] }
%class.anon.62 = type { ptr, ptr, ptr }

; Function Attrs: mustprogress nounwind uwtable
define linkonce_odr hidden void @_ZN6bufferIP3appLb0ELj128EEC2Ev(ptr noundef nonnull align 8 dereferenceable(1040) %0) unnamed_addr #6 comdat align 2 {
  %2 = alloca ptr, align 8
  store ptr %0, ptr %2, align 8, !tbaa !201
  %3 = load ptr, ptr %2, align 8
  %4 = getelementptr inbounds nuw %class.buffer.61, ptr %3, i32 0, i32 0
  %5 = getelementptr inbounds nuw %class.buffer.61, ptr %3, i32 0, i32 3
  %6 = getelementptr inbounds [1024 x i8], ptr %5, i64 0, i64 0
  store ptr %6, ptr %4, align 8, !tbaa !205
  %7 = getelementptr inbounds nuw %class.buffer.61, ptr %3, i32 0, i32 1
  store i32 0, ptr %7, align 8, !tbaa !203
  %8 = getelementptr inbounds nuw %class.buffer.61, ptr %3, i32 0, i32 2
  store i32 128, ptr %8, align 4, !tbaa !401
  ret void
}

; Function Attrs: mustprogress nounwind uwtable
define linkonce_odr hidden noundef ptr @_ZNK3app3endEv(ptr noundef nonnull align 8 dereferenceable(32) %0) #6 comdat align 2 {
  %2 = alloca ptr, align 8
  store ptr %0, ptr %2, align 8, !tbaa !74
  %3 = load ptr, ptr %2, align 8
  %4 = getelementptr inbounds nuw %class.app, ptr %3, i32 0, i32 4
  %5 = getelementptr inbounds [0 x ptr], ptr %4, i64 0, i64 0
  %6 = getelementptr inbounds nuw %class.app, ptr %3, i32 0, i32 2
  %7 = load i32, ptr %6, align 8, !tbaa !107
  %8 = zext i32 %7 to i64
  %9 = getelementptr inbounds nuw ptr, ptr %5, i64 %8
  ret ptr %9
}

; Function Attrs: mustprogress nounwind uwtable
define linkonce_odr hidden noundef ptr @_ZNK3app5beginEv(ptr noundef nonnull align 8 dereferenceable(32) %0) #6 comdat align 2 {
  %2 = alloca ptr, align 8
  store ptr %0, ptr %2, align 8, !tbaa !74
  %3 = load ptr, ptr %2, align 8
  %4 = getelementptr inbounds nuw %class.app, ptr %3, i32 0, i32 4
  %5 = getelementptr inbounds [0 x ptr], ptr %4, i64 0, i64 0
  ret ptr %5
}

; Function Attrs: mustprogress nounwind uwtable
define linkonce_odr hidden void @_ZN6bufferIP3appLb0ELj128EE8pop_backEv(ptr noundef nonnull align 8 dereferenceable(1040) %0) #6 comdat align 2 {
  %2 = alloca ptr, align 8
  store ptr %0, ptr %2, align 8, !tbaa !201
  %3 = load ptr, ptr %2, align 8
  %4 = getelementptr inbounds nuw %class.buffer.61, ptr %3, i32 0, i32 1
  %5 = load i32, ptr %4, align 8, !tbaa !203
  %6 = add i32 %5, -1
  store i32 %6, ptr %4, align 8, !tbaa !203
  ret void
}

; Function Attrs: mustprogress nounwind uwtable
define linkonce_odr hidden noundef nonnull align 8 dereferenceable(8) ptr @_ZN6bufferIP3appLb0ELj128EE4backEv(ptr noundef nonnull align 8 dereferenceable(1040) %0) #6 comdat align 2 {
  %2 = alloca ptr, align 8
  store ptr %0, ptr %2, align 8, !tbaa !201
  %3 = load ptr, ptr %2, align 8
  %4 = getelementptr inbounds nuw %class.buffer.61, ptr %3, i32 0, i32 0
  %5 = load ptr, ptr %4, align 8, !tbaa !205
  %6 = getelementptr inbounds nuw %class.buffer.61, ptr %3, i32 0, i32 1
  %7 = load i32, ptr %6, align 8, !tbaa !203
  %8 = sub i32 %7, 1
  %9 = zext i32 %8 to i64
  %10 = getelementptr inbounds nuw ptr, ptr %5, i64 %9
  ret ptr %10
}

; Function Attrs: mustprogress nounwind uwtable
define linkonce_odr hidden noundef zeroext i1 @_ZNK6bufferIP3appLb0ELj128EE5emptyEv(ptr noundef nonnull align 8 dereferenceable(1040) %0) #6 comdat align 2 {
  %2 = alloca ptr, align 8
  store ptr %0, ptr %2, align 8, !tbaa !201
  %3 = load ptr, ptr %2, align 8
  %4 = getelementptr inbounds nuw %class.buffer.61, ptr %3, i32 0, i32 1
  %5 = load i32, ptr %4, align 8, !tbaa !203
  %6 = icmp eq i32 %5, 0
  ret i1 %6
}

; Function Attrs: inlinehint mustprogress nounwind uwtable
define linkonce_odr hidden void @_ZN10ptr_bufferI3appLj128EEC2Ev(ptr noundef nonnull align 8 dereferenceable(1040) %0) unnamed_addr #7 comdat align 2 {
  %2 = alloca ptr, align 8
  store ptr %0, ptr %2, align 8, !tbaa !197
  %3 = load ptr, ptr %2, align 8
  call void @_ZN6bufferIP3appLb0ELj128EEC2Ev(ptr noundef nonnull align 8 dereferenceable(1040) %3) #3
  ret void
}

; Function Attrs: mustprogress uwtable
define hidden void @_ZN3euf9solve_eqs16collect_num_occsEP4exprR13ast_fast_markILj1EE(ptr noundef nonnull align 8 dereferenceable(200) %0, ptr noundef %1, ptr noundef nonnull align 8 dereferenceable(144) %2) #4 align 2 personality ptr @__gxx_personality_v0 {
  %4 = alloca ptr, align 8
  %5 = alloca ptr, align 8
  %6 = alloca ptr, align 8
  %7 = alloca %class.ptr_buffer.60, align 8
  %8 = alloca %class.anon.62, align 8
  %9 = alloca ptr, align 8
  %10 = alloca i32, align 4
  %11 = alloca ptr, align 8
  %12 = alloca ptr, align 8
  %13 = alloca ptr, align 8
  %14 = alloca ptr, align 8
  %15 = alloca ptr, align 8
  store ptr %0, ptr %4, align 8, !tbaa !3
  store ptr %1, ptr %5, align 8, !tbaa !72
  store ptr %2, ptr %6, align 8, !tbaa !105
  %16 = load ptr, ptr %4, align 8
  call void @llvm.lifetime.start.p0(i64 1040, ptr %7) #3
  call void @_ZN10ptr_bufferI3appLj128EEC2Ev(ptr noundef nonnull align 8 dereferenceable(1040) %7) #3
  call void @llvm.lifetime.start.p0(i64 24, ptr %8) #3
  %17 = getelementptr inbounds nuw %class.anon.62, ptr %8, i32 0, i32 0
  store ptr %16, ptr %17, align 8, !tbaa !194
  %18 = getelementptr inbounds nuw %class.anon.62, ptr %8, i32 0, i32 1
  %19 = load ptr, ptr %6, align 8, !tbaa !105
  store ptr %19, ptr %18, align 8, !tbaa !105
  %20 = getelementptr inbounds nuw %class.anon.62, ptr %8, i32 0, i32 2
  store ptr %7, ptr %20, align 8, !tbaa !197
  %21 = load ptr, ptr %5, align 8, !tbaa !72
  invoke void @"_ZZN3euf9solve_eqs16collect_num_occsEP4exprR13ast_fast_markILj1EEENK3$_0clES2_"(ptr noundef nonnull align 8 dereferenceable(24) %8, ptr noundef %21)
          to label %22 unwind label %44

22:                                               ; preds = %3
  br label %23

23:                                               ; preds = %74, %22
  %24 = invoke noundef zeroext i1 @_ZNK6bufferIP3appLb0ELj128EE5emptyEv(ptr noundef nonnull align 8 dereferenceable(1040) %7)
          to label %25 unwind label %44

25:                                               ; preds = %23
  %26 = xor i1 %24, true
  br i1 %26, label %27, label %76

27:                                               ; preds = %25
  call void @llvm.lifetime.start.p0(i64 8, ptr %11) #3
  %28 = invoke noundef nonnull align 8 dereferenceable(8) ptr @_ZN6bufferIP3appLb0ELj128EE4backEv(ptr noundef nonnull align 8 dereferenceable(1040) %7)
          to label %29 unwind label %48

29:                                               ; preds = %27
  %30 = load ptr, ptr %28, align 8, !tbaa !74
  store ptr %30, ptr %11, align 8, !tbaa !74
  invoke void @_ZN6bufferIP3appLb0ELj128EE8pop_backEv(ptr noundef nonnull align 8 dereferenceable(1040) %7)
          to label %31 unwind label %48

31:                                               ; preds = %29
  call void @llvm.lifetime.start.p0(i64 8, ptr %12) #3
  %32 = load ptr, ptr %11, align 8, !tbaa !74
  store ptr %32, ptr %12, align 8, !tbaa !74
  call void @llvm.lifetime.start.p0(i64 8, ptr %13) #3
  %33 = load ptr, ptr %12, align 8, !tbaa !74
  %34 = invoke noundef ptr @_ZNK3app5beginEv(ptr noundef nonnull align 8 dereferenceable(32) %33)
          to label %35 unwind label %52

35:                                               ; preds = %31
  store ptr %34, ptr %13, align 8, !tbaa !83
  call void @llvm.lifetime.start.p0(i64 8, ptr %14) #3
  %36 = load ptr, ptr %12, align 8, !tbaa !74
  %37 = invoke noundef ptr @_ZNK3app3endEv(ptr noundef nonnull align 8 dereferenceable(32) %36)
          to label %38 unwind label %56

38:                                               ; preds = %35
  store ptr %37, ptr %14, align 8, !tbaa !83
  br label %39

39:                                               ; preds = %65, %38
  %40 = load ptr, ptr %13, align 8, !tbaa !83
  %41 = load ptr, ptr %14, align 8, !tbaa !83
  %42 = icmp ne ptr %40, %41
  br i1 %42, label %60, label %43

43:                                               ; preds = %39
  call void @llvm.lifetime.end.p0(i64 8, ptr %14) #3
  call void @llvm.lifetime.end.p0(i64 8, ptr %13) #3
  call void @llvm.lifetime.end.p0(i64 8, ptr %12) #3
  br label %74

44:                                               ; preds = %23, %3
  %45 = landingpad { ptr, i32 }
          cleanup
  %46 = extractvalue { ptr, i32 } %45, 0
  store ptr %46, ptr %9, align 8
  %47 = extractvalue { ptr, i32 } %45, 1
  store i32 %47, ptr %10, align 4
  br label %77

48:                                               ; preds = %29, %27
  %49 = landingpad { ptr, i32 }
          cleanup
  %50 = extractvalue { ptr, i32 } %49, 0
  store ptr %50, ptr %9, align 8
  %51 = extractvalue { ptr, i32 } %49, 1
  store i32 %51, ptr %10, align 4
  br label %75

52:                                               ; preds = %31
  %53 = landingpad { ptr, i32 }
          cleanup
  %54 = extractvalue { ptr, i32 } %53, 0
  store ptr %54, ptr %9, align 8
  %55 = extractvalue { ptr, i32 } %53, 1
  store i32 %55, ptr %10, align 4
  br label %73

56:                                               ; preds = %35
  %57 = landingpad { ptr, i32 }
          cleanup
  %58 = extractvalue { ptr, i32 } %57, 0
  store ptr %58, ptr %9, align 8
  %59 = extractvalue { ptr, i32 } %57, 1
  store i32 %59, ptr %10, align 4
  br label %72

60:                                               ; preds = %39
  call void @llvm.lifetime.start.p0(i64 8, ptr %15) #3
  %61 = load ptr, ptr %13, align 8, !tbaa !83
  %62 = load ptr, ptr %61, align 8, !tbaa !72
  store ptr %62, ptr %15, align 8, !tbaa !72
  %63 = load ptr, ptr %15, align 8, !tbaa !72
  invoke void @"_ZZN3euf9solve_eqs16collect_num_occsEP4exprR13ast_fast_markILj1EEENK3$_0clES2_"(ptr noundef nonnull align 8 dereferenceable(24) %8, ptr noundef %63)
          to label %64 unwind label %68

64:                                               ; preds = %60
  call void @llvm.lifetime.end.p0(i64 8, ptr %15) #3
  br label %65

65:                                               ; preds = %64
  %66 = load ptr, ptr %13, align 8, !tbaa !83
  %67 = getelementptr inbounds nuw ptr, ptr %66, i32 1
  store ptr %67, ptr %13, align 8, !tbaa !83
  br label %39

68:                                               ; preds = %60
  %69 = landingpad { ptr, i32 }
          cleanup
  %70 = extractvalue { ptr, i32 } %69, 0
  store ptr %70, ptr %9, align 8
  %71 = extractvalue { ptr, i32 } %69, 1
  store i32 %71, ptr %10, align 4
  call void @llvm.lifetime.end.p0(i64 8, ptr %15) #3
  br label %72

72:                                               ; preds = %68, %56
  call void @llvm.lifetime.end.p0(i64 8, ptr %14) #3
  br label %73

73:                                               ; preds = %72, %52
  call void @llvm.lifetime.end.p0(i64 8, ptr %13) #3
  call void @llvm.lifetime.end.p0(i64 8, ptr %12) #3
  br label %75

74:                                               ; preds = %43
  call void @llvm.lifetime.end.p0(i64 8, ptr %11) #3
  br label %23, !llvm.loop !198

75:                                               ; preds = %73, %48
  call void @llvm.lifetime.end.p0(i64 8, ptr %11) #3
  br label %77

76:                                               ; preds = %25
  call void @llvm.lifetime.end.p0(i64 24, ptr %8) #3
  call void @_ZN6bufferIP3appLb0ELj128EED2Ev(ptr noundef nonnull align 8 dereferenceable(1040) %7) #3
  call void @llvm.lifetime.end.p0(i64 1040, ptr %7) #3
  ret void

77:                                               ; preds = %75, %44
  call void @llvm.lifetime.end.p0(i64 24, ptr %8) #3
  call void @_ZN6bufferIP3appLb0ELj128EED2Ev(ptr noundef nonnull align 8 dereferenceable(1040) %7) #3
  call void @llvm.lifetime.end.p0(i64 1040, ptr %7) #3
  br label %78

78:                                               ; preds = %77
  %79 = load ptr, ptr %9, align 8
  %80 = load i32, ptr %10, align 4
  %81 = insertvalue { ptr, i32 } poison, ptr %79, 0
  %82 = insertvalue { ptr, i32 } %81, i32 %80, 1
  resume { ptr, i32 } %82
}