; Function Attrs: mustprogress uwtable
define hidden void @_ZN3euf9solve_eqs16collect_num_occsEP4exprR13ast_fast_markILj1EE(ptr noundef nonnull align 8 dereferenceable(200) %0, ptr noundef %1, ptr noundef nonnull align 8 dereferenceable(144) %2) local_unnamed_addr #3 align 2 personality ptr @__gxx_personality_v0 {
  %4 = alloca %class.ptr_buffer.60, align 8
  %5 = alloca %class.anon.62, align 8
  call void @llvm.lifetime.start.p0(i64 1040, ptr nonnull %4) #25
  %6 = getelementptr inbounds nuw i8, ptr %4, i64 16
  store ptr %6, ptr %4, align 8, !tbaa !186
  %7 = getelementptr inbounds nuw i8, ptr %4, i64 8
  store i32 0, ptr %7, align 8, !tbaa !188
  %8 = getelementptr inbounds nuw i8, ptr %4, i64 12
  store i32 128, ptr %8, align 4, !tbaa !189
  call void @llvm.lifetime.start.p0(i64 24, ptr nonnull %5) #25
  store ptr %0, ptr %5, align 8, !tbaa !190
  %9 = getelementptr inbounds nuw i8, ptr %5, i64 8
  store ptr %2, ptr %9, align 8, !tbaa !195
  %10 = getelementptr inbounds nuw i8, ptr %5, i64 16
  store ptr %4, ptr %10, align 8, !tbaa !196
  invoke fastcc void @"_ZZN3euf9solve_eqs16collect_num_occsEP4exprR13ast_fast_markILj1EEENK3$_0clES2_"(ptr noundef nonnull align 8 dereferenceable(24) %5, ptr noundef %1)
          to label %.preheader unwind label %25

.preheader:                                       ; preds = %3
  %11 = load i32, ptr %7, align 8, !tbaa !188
  %12 = icmp eq i32 %11, 0
  br i1 %12, label %._crit_edge, label %.lr.ph17

.loopexit.loopexit:                               ; preds = %28
  %.pre = load i32, ptr %7, align 8, !tbaa !188
  br label %.loopexit

.loopexit:                                        ; preds = %.loopexit.loopexit, %.lr.ph17
  %13 = phi i32 [ %.pre, %.loopexit.loopexit ], [ %17, %.lr.ph17 ]
  %14 = icmp eq i32 %13, 0
  br i1 %14, label %._crit_edge, label %.lr.ph17, !llvm.loop !197

.lr.ph17:                                         ; preds = %.preheader, %.loopexit
  %15 = phi i32 [ %13, %.loopexit ], [ %11, %.preheader ]
  %16 = load ptr, ptr %4, align 8, !tbaa !186
  %17 = add i32 %15, -1
  %18 = zext i32 %17 to i64
  %19 = getelementptr inbounds nuw ptr, ptr %16, i64 %18
  %20 = load ptr, ptr %19, align 8, !tbaa !70
  store i32 %17, ptr %7, align 8, !tbaa !188
  %21 = getelementptr inbounds nuw i8, ptr %20, i64 24
  %22 = load i32, ptr %21, align 8, !tbaa !77
  %23 = zext i32 %22 to i64
  %.idx = shl nuw nsw i64 %23, 3
  %24 = getelementptr inbounds nuw i8, ptr %20, i64 %.idx
  %.ptr18 = getelementptr inbounds nuw i8, ptr %24, i64 32
  %.not15 = icmp eq i32 %22, 0
  br i1 %.not15, label %.loopexit, label %.lr.ph.preheader

.lr.ph.preheader:                                 ; preds = %.lr.ph17
  %.ptr = getelementptr inbounds nuw i8, ptr %20, i64 32
  br label %.lr.ph

25:                                               ; preds = %3
  %26 = landingpad { ptr, i32 }
          cleanup
  br label %38

.lr.ph:                                           ; preds = %.lr.ph.preheader, %28
  %.01316 = phi ptr [ %29, %28 ], [ %.ptr, %.lr.ph.preheader ]
  %27 = load ptr, ptr %.01316, align 8, !tbaa !134
  invoke fastcc void @"_ZZN3euf9solve_eqs16collect_num_occsEP4exprR13ast_fast_markILj1EEENK3$_0clES2_"(ptr noundef nonnull align 8 dereferenceable(24) %5, ptr noundef %27)
          to label %28 unwind label %30

28:                                               ; preds = %.lr.ph
  %29 = getelementptr inbounds nuw i8, ptr %.01316, i64 8
  %.not = icmp eq ptr %29, %.ptr18
  br i1 %.not, label %.loopexit.loopexit, label %.lr.ph

30:                                               ; preds = %.lr.ph
  %31 = landingpad { ptr, i32 }
          cleanup
  br label %38

._crit_edge:                                      ; preds = %.loopexit, %.preheader
  call void @llvm.lifetime.end.p0(i64 24, ptr nonnull %5) #25
  %32 = load ptr, ptr %4, align 8, !tbaa !186
  %.not.i.i.i = icmp eq ptr %32, %6
  %33 = icmp eq ptr %32, null
  %or.cond.i.i.i = or i1 %.not.i.i.i, %33
  br i1 %or.cond.i.i.i, label %_ZN6bufferIP3appLb0ELj128EED2Ev.exit, label %34

34:                                               ; preds = %._crit_edge
  invoke void @_ZN6memory10deallocateEPv(ptr noundef nonnull %32)
          to label %_ZN6bufferIP3appLb0ELj128EED2Ev.exit unwind label %35

35:                                               ; preds = %34
  %36 = landingpad { ptr, i32 }
          catch ptr null
  %37 = extractvalue { ptr, i32 } %36, 0
  call void @__clang_call_terminate(ptr %37) #24
  unreachable

_ZN6bufferIP3appLb0ELj128EED2Ev.exit:             ; preds = %._crit_edge, %34
  call void @llvm.lifetime.end.p0(i64 1040, ptr nonnull %4) #25
  ret void

38:                                               ; preds = %30, %25
  %.pn = phi { ptr, i32 } [ %31, %30 ], [ %26, %25 ]
  call void @llvm.lifetime.end.p0(i64 24, ptr nonnull %5) #25
  call void @_ZN6bufferIP3appLb0ELj128EED2Ev(ptr noundef nonnull align 8 dereferenceable(1040) %4) #25
  call void @llvm.lifetime.end.p0(i64 1040, ptr nonnull %4) #25
  resume { ptr, i32 } %.pn
}